; Function Attrs: nounwind uwtable
define void @png_chunk_report(ptr noalias noundef %0, ptr noundef %1, i32 noundef %2) local_unnamed_addr #5 {
  %4 = getelementptr inbounds nuw i8, ptr %0, i64 300
  %5 = load i32, ptr %4, align 4, !tbaa !37
  %6 = and i32 %5, 32768
  %.not = icmp eq i32 %6, 0
  br i1 %.not, label %15, label %7

7:                                                ; preds = %3
  %8 = icmp slt i32 %2, 2
  br i1 %8, label %9, label %10

9:                                                ; preds = %7
  tail call void @png_chunk_warning(ptr noundef nonnull %0, ptr noundef %1)
  br label %png_app_warning.exit

10:                                               ; preds = %7
  %11 = getelementptr inbounds nuw i8, ptr %0, i64 304
  %12 = load i32, ptr %11, align 8, !tbaa !36, !alias.scope !53
  %13 = and i32 %12, 1048576
  %.not.i = icmp eq i32 %13, 0
  br i1 %.not.i, label %14, label %png_chunk_benign_error.exit

14:                                               ; preds = %10
  tail call void @png_chunk_error(ptr noundef nonnull %0, ptr noundef %1) #22
  unreachable

png_chunk_benign_error.exit:                      ; preds = %10
  tail call void @png_chunk_warning(ptr noundef nonnull %0, ptr noundef %1)
  br label %png_app_warning.exit

15:                                               ; preds = %3
  %16 = icmp slt i32 %2, 1
  %17 = getelementptr inbounds nuw i8, ptr %0, i64 304
  br i1 %16, label %18, label %34

18:                                               ; preds = %15
  tail call void @llvm.experimental.noalias.scope.decl(metadata !56)
  %19 = load i32, ptr %17, align 8, !tbaa !36, !alias.scope !56
  %20 = and i32 %19, 2097152
  %.not.i11 = icmp eq i32 %20, 0
  br i1 %.not.i11, label %33, label %21

21:                                               ; preds = %18
  tail call void @llvm.experimental.noalias.scope.decl(metadata !59)
  %22 = load i8, ptr %1, align 1, !tbaa !24, !noalias !62
  %23 = icmp eq i8 %22, 35
  br i1 %23, label %.preheader.i.i, label %.thread20.i.i

.preheader.i.i:                                   ; preds = %21, %27
  %indvars.iv.i.i = phi i64 [ %indvars.iv.next.i.i, %27 ], [ 1, %21 ]
  %24 = getelementptr inbounds nuw i8, ptr %1, i64 %indvars.iv.i.i
  %25 = load i8, ptr %24, align 1, !tbaa !24, !noalias !62
  %26 = icmp eq i8 %25, 32
  br i1 %26, label %.thread20.loopexit.i.i, label %27

27:                                               ; preds = %.preheader.i.i
  %indvars.iv.next.i.i = add nuw nsw i64 %indvars.iv.i.i, 1
  %exitcond.not.i.i = icmp eq i64 %indvars.iv.next.i.i, 15
  br i1 %exitcond.not.i.i, label %.thread20.loopexit.i.i, label %.preheader.i.i, !llvm.loop !28

.thread20.loopexit.i.i:                           ; preds = %27, %.preheader.i.i
  %.022.ph.i.i = phi i64 [ 15, %27 ], [ %indvars.iv.i.i, %.preheader.i.i ]
  %28 = and i64 %.022.ph.i.i, 4294967295
  br label %.thread20.i.i

.thread20.i.i:                                    ; preds = %.thread20.loopexit.i.i, %21
  %.022.i.i = phi i64 [ 0, %21 ], [ %28, %.thread20.loopexit.i.i ]
  %29 = getelementptr inbounds nuw i8, ptr %0, i64 232
  %30 = load ptr, ptr %29, align 8, !tbaa !29, !alias.scope !62
  %.not17.i.i = icmp eq ptr %30, null
  %31 = getelementptr inbounds nuw i8, ptr %1, i64 %.022.i.i
  br i1 %.not17.i.i, label %.split14.i.i, label %32

.split14.i.i:                                     ; preds = %.thread20.i.i
  tail call fastcc void @png_default_warning(ptr noundef nonnull %31), !noalias !56
  br label %png_app_warning.exit

32:                                               ; preds = %.thread20.i.i
  tail call void %30(ptr noundef nonnull %0, ptr noundef nonnull %31) #21
  br label %png_app_warning.exit

33:                                               ; preds = %18
  tail call void @png_error(ptr noundef nonnull %0, ptr noundef %1) #22
  unreachable

34:                                               ; preds = %15
  tail call void @llvm.experimental.noalias.scope.decl(metadata !63)
  %35 = load i32, ptr %17, align 8, !tbaa !36, !alias.scope !63
  %36 = and i32 %35, 4194304
  %.not.i12 = icmp eq i32 %36, 0
  br i1 %.not.i12, label %49, label %37

37:                                               ; preds = %34
  tail call void @llvm.experimental.noalias.scope.decl(metadata !66)
  %38 = load i8, ptr %1, align 1, !tbaa !24, !noalias !69
  %39 = icmp eq i8 %38, 35
  br i1 %39, label %.preheader.i.i17, label %.thread20.i.i13

.preheader.i.i17:                                 ; preds = %37, %43
  %indvars.iv.i.i18 = phi i64 [ %indvars.iv.next.i.i19, %43 ], [ 1, %37 ]
  %40 = getelementptr inbounds nuw i8, ptr %1, i64 %indvars.iv.i.i18
  %41 = load i8, ptr %40, align 1, !tbaa !24, !noalias !69
  %42 = icmp eq i8 %41, 32
  br i1 %42, label %.thread20.loopexit.i.i21, label %43

43:                                               ; preds = %.preheader.i.i17
  %indvars.iv.next.i.i19 = add nuw nsw i64 %indvars.iv.i.i18, 1
  %exitcond.not.i.i20 = icmp eq i64 %indvars.iv.next.i.i19, 15
  br i1 %exitcond.not.i.i20, label %.thread20.loopexit.i.i21, label %.preheader.i.i17, !llvm.loop !28

.thread20.loopexit.i.i21:                         ; preds = %43, %.preheader.i.i17
  %.022.ph.i.i22 = phi i64 [ 15, %43 ], [ %indvars.iv.i.i18, %.preheader.i.i17 ]
  %44 = and i64 %.022.ph.i.i22, 4294967295
  br label %.thread20.i.i13

.thread20.i.i13:                                  ; preds = %.thread20.loopexit.i.i21, %37
  %.022.i.i14 = phi i64 [ 0, %37 ], [ %44, %.thread20.loopexit.i.i21 ]
  %45 = getelementptr inbounds nuw i8, ptr %0, i64 232
  %46 = load ptr, ptr %45, align 8, !tbaa !29, !alias.scope !69
  %.not17.i.i15 = icmp eq ptr %46, null
  %47 = getelementptr inbounds nuw i8, ptr %1, i64 %.022.i.i14
  br i1 %.not17.i.i15, label %.split14.i.i16, label %48

.split14.i.i16:                                   ; preds = %.thread20.i.i13
  tail call fastcc void @png_default_warning(ptr noundef nonnull %47), !noalias !63
  br label %png_app_warning.exit

48:                                               ; preds = %.thread20.i.i13
  tail call void %46(ptr noundef nonnull %0, ptr noundef nonnull %47) #21
  br label %png_app_warning.exit

49:                                               ; preds = %34
  tail call void @png_error(ptr noundef nonnull %0, ptr noundef %1) #22
  unreachable

png_app_warning.exit:                             ; preds = %48, %.split14.i.i16, %32, %.split14.i.i, %9, %png_chunk_benign_error.exit
  ret void
}